; ModuleID = 'bench/libigl/original/is_file.ll'
source_filename = "bench/libigl/original/is_file.ll"
target datalayout = "e-m:e-p270:32:32-p271:32:32-p272:64:64-i64:64-i128:128-f80:128-n8:16:32:64-S128"
target triple = "x86_64-pc-linux-gnu"

%struct.stat = type { i64, i64, i64, i32, i32, i32, i32, i64, i64, i64, i64, %struct.timespec, %struct.timespec, %struct.timespec, [3 x i64] }
%struct.timespec = type { i64, i64 }

; Function Attrs: mustprogress nofree nounwind uwtable
define dso_local noundef zeroext i1 @_ZN3igl7is_fileEPKc(ptr noundef readonly captures(none) %0) local_unnamed_addr #0 {
  %2 = alloca %struct.stat, align 8
  call void @llvm.lifetime.start.p0(i64 144, ptr nonnull %2) #3
  %3 = call i32 @stat(ptr noundef %0, ptr noundef nonnull %2) #3
  %.not = icmp eq i32 %3, 0
  %4 = getelementptr inbounds nuw i8, ptr %2, i64 24
  %5 = load i32, ptr %4, align 8
  %6 = and i32 %5, 61440
  %7 = icmp eq i32 %6, 32768
  %.0 = select i1 %.not, i1 %7, i1 false
  call void @llvm.lifetime.end.p0(i64 144, ptr nonnull %2) #3
  ret i1 %.0
}

; Function Attrs: mustprogress nocallback nofree nosync nounwind willreturn memory(argmem: readwrite)
declare void @llvm.lifetime.start.p0(i64 immarg, ptr captures(none)) #1

; Function Attrs: nofree nounwind
declare noundef i32 @stat(ptr noundef readonly captures(none), ptr noundef captures(none)) local_unnamed_addr #2

; Function Attrs: mustprogress nocallback nofree nosync nounwind willreturn memory(argmem: readwrite)
declare void @llvm.lifetime.end.p0(i64 immarg, ptr captures(none)) #1


!llvm.module.flags = !{!0, !1, !2, !3}

!0 = !{i32 1, !"wchar_size", i32 4}
!1 = !{i32 8, !"PIC Level", i32 2}
!2 = !{i32 7, !"PIE Level", i32 2}
!3 = !{i32 7, !"uwtable", i32 2}
